target datalayout = "e-m:e-p270:32:32-p271:32:32-p272:64:64-i64:64-i128:128-f80:128-n8:16:32:64-S128"
target triple = "x86_64-pc-linux-gnu"

%struct._address = type { i32, i32, ptr, ptr }
%struct.conversation_element = type { i32, %union.anon }
%union.anon = type { %struct._address }
%struct.conversation = type { ptr, ptr, ptr, i32, i32, i32, ptr, ptr, i32, ptr }

@conversation_hashtable_exact_addr_port = internal global ptr null, align 8
@conversation_hashtable_no_addr2 = internal global ptr null, align 8
@conversation_hashtable_no_port2 = internal global ptr null, align 8
@conversation_hashtable_no_addr2_or_port2 = internal global ptr null, align 8
@.str.1 = private unnamed_addr constant [20 x i8] c"epan/conversation.c\00", align 1
@.str.3 = private unnamed_addr constant [34 x i8] c"%s:%u: failed assertion \22%s\22 (%s)\00", align 1
@.str.6 = private unnamed_addr constant [24 x i8] c"!(conv->options & 0x08)\00", align 1
@.str.7 = private unnamed_addr constant [113 x i8] c"Use the conversation_create_from_template function when the CONVERSATION_TEMPLATE bit is set in the options mask\00", align 1

; Function Attrs: null_pointer_is_valid sspstrong uwtable
define internal void @conversation_remove_from_hashtable(ptr noundef %0, ptr noundef %1) #0 {
  %3 = alloca ptr, align 8
  %4 = alloca ptr, align 8
  %5 = alloca ptr, align 8
  %6 = alloca ptr, align 8
  %7 = alloca ptr, align 8
  %8 = alloca i32, align 4
  store ptr %0, ptr %3, align 8
  store ptr %1, ptr %4, align 8
  call void @llvm.lifetime.start.p0(i64 8, ptr %5) #12
  call void @llvm.lifetime.start.p0(i64 8, ptr %6) #12
  call void @llvm.lifetime.start.p0(i64 8, ptr %7) #12
  %9 = load ptr, ptr %3, align 8
  %10 = load ptr, ptr %4, align 8
  %11 = getelementptr inbounds nuw %struct.conversation, ptr %10, i32 0, i32 9
  %12 = load ptr, ptr %11, align 8
  %13 = call ptr @wmem_map_lookup(ptr noundef %9, ptr noundef %12)
  store ptr %13, ptr %5, align 8
  %14 = load ptr, ptr %4, align 8
  %15 = load ptr, ptr %5, align 8
  %16 = icmp eq ptr %14, %15
  br i1 %16, label %17, label %59

17:                                               ; preds = %2
  %18 = load ptr, ptr %4, align 8
  %19 = getelementptr inbounds nuw %struct.conversation, ptr %18, i32 0, i32 0
  %20 = load ptr, ptr %19, align 8
  %21 = icmp eq ptr null, %20
  br i1 %21, label %22, label %28

22:                                               ; preds = %17
  %23 = load ptr, ptr %3, align 8
  %24 = load ptr, ptr %4, align 8
  %25 = getelementptr inbounds nuw %struct.conversation, ptr %24, i32 0, i32 9
  %26 = load ptr, ptr %25, align 8
  %27 = call zeroext i1 @wmem_map_steal(ptr noundef %23, ptr noundef %26)
  br label %58

28:                                               ; preds = %17
  %29 = load ptr, ptr %4, align 8
  %30 = getelementptr inbounds nuw %struct.conversation, ptr %29, i32 0, i32 0
  %31 = load ptr, ptr %30, align 8
  store ptr %31, ptr %5, align 8
  %32 = load ptr, ptr %4, align 8
  %33 = getelementptr inbounds nuw %struct.conversation, ptr %32, i32 0, i32 1
  %34 = load ptr, ptr %33, align 8
  %35 = load ptr, ptr %5, align 8
  %36 = getelementptr inbounds nuw %struct.conversation, ptr %35, i32 0, i32 1
  store ptr %34, ptr %36, align 8
  %37 = load ptr, ptr %4, align 8
  %38 = getelementptr inbounds nuw %struct.conversation, ptr %37, i32 0, i32 2
  %39 = load ptr, ptr %38, align 8
  %40 = load ptr, ptr %4, align 8
  %41 = icmp eq ptr %39, %40
  br i1 %41, label %42, label %45

42:                                               ; preds = %28
  %43 = load ptr, ptr %5, align 8
  %44 = getelementptr inbounds nuw %struct.conversation, ptr %43, i32 0, i32 2
  store ptr null, ptr %44, align 8
  br label %51

45:                                               ; preds = %28
  %46 = load ptr, ptr %4, align 8
  %47 = getelementptr inbounds nuw %struct.conversation, ptr %46, i32 0, i32 2
  %48 = load ptr, ptr %47, align 8
  %49 = load ptr, ptr %5, align 8
  %50 = getelementptr inbounds nuw %struct.conversation, ptr %49, i32 0, i32 2
  store ptr %48, ptr %50, align 8
  br label %51

51:                                               ; preds = %45, %42
  %52 = load ptr, ptr %3, align 8
  %53 = load ptr, ptr %5, align 8
  %54 = getelementptr inbounds nuw %struct.conversation, ptr %53, i32 0, i32 9
  %55 = load ptr, ptr %54, align 8
  %56 = load ptr, ptr %5, align 8
  %57 = call ptr @wmem_map_insert(ptr noundef %52, ptr noundef %55, ptr noundef %56)
  br label %58

58:                                               ; preds = %51, %22
  br label %111

59:                                               ; preds = %2
  %60 = load ptr, ptr %5, align 8
  %61 = getelementptr inbounds nuw %struct.conversation, ptr %60, i32 0, i32 0
  %62 = load ptr, ptr %61, align 8
  store ptr %62, ptr %6, align 8
  %63 = load ptr, ptr %5, align 8
  store ptr %63, ptr %7, align 8
  br label %64

64:                                               ; preds = %76, %59
  %65 = load ptr, ptr %6, align 8
  %66 = load ptr, ptr %4, align 8
  %67 = icmp ne ptr %65, %66
  br i1 %67, label %68, label %73

68:                                               ; preds = %64
  %69 = load ptr, ptr %6, align 8
  %70 = getelementptr inbounds nuw %struct.conversation, ptr %69, i32 0, i32 0
  %71 = load ptr, ptr %70, align 8
  %72 = icmp ne ptr %71, null
  br label %73

73:                                               ; preds = %68, %64
  %74 = phi i1 [ false, %64 ], [ %72, %68 ]
  br i1 %74, label %75, label %81

75:                                               ; preds = %73
  br label %76

76:                                               ; preds = %75
  %77 = load ptr, ptr %6, align 8
  store ptr %77, ptr %7, align 8
  %78 = load ptr, ptr %6, align 8
  %79 = getelementptr inbounds nuw %struct.conversation, ptr %78, i32 0, i32 0
  %80 = load ptr, ptr %79, align 8
  store ptr %80, ptr %6, align 8
  br label %64, !llvm.loop !13

81:                                               ; preds = %73
  %82 = load ptr, ptr %6, align 8
  %83 = load ptr, ptr %4, align 8
  %84 = icmp ne ptr %82, %83
  br i1 %84, label %85, label %86

85:                                               ; preds = %81
  store i32 1, ptr %8, align 4
  br label %112

86:                                               ; preds = %81
  %87 = load ptr, ptr %4, align 8
  %88 = getelementptr inbounds nuw %struct.conversation, ptr %87, i32 0, i32 0
  %89 = load ptr, ptr %88, align 8
  %90 = load ptr, ptr %7, align 8
  %91 = getelementptr inbounds nuw %struct.conversation, ptr %90, i32 0, i32 0
  store ptr %89, ptr %91, align 8
  %92 = load ptr, ptr %4, align 8
  %93 = getelementptr inbounds nuw %struct.conversation, ptr %92, i32 0, i32 0
  %94 = load ptr, ptr %93, align 8
  %95 = icmp eq ptr null, %94
  br i1 %95, label %96, label %100

96:                                               ; preds = %86
  %97 = load ptr, ptr %7, align 8
  %98 = load ptr, ptr %5, align 8
  %99 = getelementptr inbounds nuw %struct.conversation, ptr %98, i32 0, i32 1
  store ptr %97, ptr %99, align 8
  br label %100

100:                                              ; preds = %96, %86
  %101 = load ptr, ptr %5, align 8
  %102 = getelementptr inbounds nuw %struct.conversation, ptr %101, i32 0, i32 2
  %103 = load ptr, ptr %102, align 8
  %104 = load ptr, ptr %4, align 8
  %105 = icmp eq ptr %103, %104
  br i1 %105, label %106, label %110

106:                                              ; preds = %100
  %107 = load ptr, ptr %7, align 8
  %108 = load ptr, ptr %5, align 8
  %109 = getelementptr inbounds nuw %struct.conversation, ptr %108, i32 0, i32 2
  store ptr %107, ptr %109, align 8
  br label %110

110:                                              ; preds = %106, %100
  br label %111

111:                                              ; preds = %110, %58
  store i32 0, ptr %8, align 4
  br label %112

112:                                              ; preds = %111, %85
  call void @llvm.lifetime.end.p0(i64 8, ptr %7) #12
  call void @llvm.lifetime.end.p0(i64 8, ptr %6) #12
  call void @llvm.lifetime.end.p0(i64 8, ptr %5) #12
  %113 = load i32, ptr %8, align 4
  switch i32 %113, label %115 [
    i32 0, label %114
    i32 1, label %114
  ]

114:                                              ; preds = %112, %112
  ret void

115:                                              ; preds = %112
  unreachable
}

; Function Attrs: null_pointer_is_valid sspstrong uwtable
define void @conversation_set_port2(ptr noundef %0, i32 noundef %1) #0 {
  %3 = alloca ptr, align 8
  %4 = alloca i32, align 4
  store ptr %0, ptr %3, align 8
  store i32 %1, ptr %4, align 4
  %5 = load ptr, ptr %3, align 8
  %6 = getelementptr inbounds nuw %struct.conversation, ptr %5, i32 0, i32 8
  %7 = load i32, ptr %6, align 8
  %8 = and i32 %7, 8
  %9 = icmp ne i32 %8, 0
  br i1 %9, label %11, label %10

10:                                               ; preds = %2
  br label %13

11:                                               ; preds = %2
  call void (ptr, ...) @proto_report_dissector_bug(ptr noundef @.str.3, ptr noundef @.str.1, i32 noundef 1323, ptr noundef @.str.6, ptr noundef @.str.7) #13
  unreachable

12:                                               ; No predecessors!
  br label %13

13:                                               ; preds = %12, %10
  %14 = load ptr, ptr %3, align 8
  %15 = getelementptr inbounds nuw %struct.conversation, ptr %14, i32 0, i32 8
  %16 = load i32, ptr %15, align 8
  %17 = and i32 %16, 2
  %18 = icmp ne i32 %17, 0
  br i1 %18, label %19, label %25

19:                                               ; preds = %13
  %20 = load ptr, ptr %3, align 8
  %21 = getelementptr inbounds nuw %struct.conversation, ptr %20, i32 0, i32 8
  %22 = load i32, ptr %21, align 8
  %23 = and i32 %22, 4
  %24 = icmp ne i32 %23, 0
  br i1 %24, label %25, label %26

25:                                               ; preds = %19, %13
  br label %92

26:                                               ; preds = %19
  %27 = load ptr, ptr %3, align 8
  %28 = getelementptr inbounds nuw %struct.conversation, ptr %27, i32 0, i32 8
  %29 = load i32, ptr %28, align 8
  %30 = and i32 %29, 1
  %31 = icmp ne i32 %30, 0
  br i1 %31, label %32, label %35

32:                                               ; preds = %26
  %33 = load ptr, ptr @conversation_hashtable_no_addr2_or_port2, align 8
  %34 = load ptr, ptr %3, align 8
  call void @conversation_remove_from_hashtable(ptr noundef %33, ptr noundef %34)
  br label %38

35:                                               ; preds = %26
  %36 = load ptr, ptr @conversation_hashtable_no_port2, align 8
  %37 = load ptr, ptr %3, align 8
  call void @conversation_remove_from_hashtable(ptr noundef %36, ptr noundef %37)
  br label %38

38:                                               ; preds = %35, %32
  %39 = load ptr, ptr %3, align 8
  %40 = getelementptr inbounds nuw %struct.conversation, ptr %39, i32 0, i32 8
  %41 = load i32, ptr %40, align 8
  %42 = and i32 %41, -3
  store i32 %42, ptr %40, align 8
  %43 = load ptr, ptr %3, align 8
  %44 = getelementptr inbounds nuw %struct.conversation, ptr %43, i32 0, i32 8
  %45 = load i32, ptr %44, align 8
  %46 = and i32 %45, 1
  %47 = icmp ne i32 %46, 0
  br i1 %47, label %48, label %70

48:                                               ; preds = %38
  %49 = load ptr, ptr %3, align 8
  %50 = getelementptr inbounds nuw %struct.conversation, ptr %49, i32 0, i32 9
  %51 = load ptr, ptr %50, align 8
  %52 = getelementptr %struct.conversation_element, ptr %51, i64 3
  %53 = load ptr, ptr %3, align 8
  %54 = getelementptr inbounds nuw %struct.conversation, ptr %53, i32 0, i32 9
  %55 = load ptr, ptr %54, align 8
  %56 = getelementptr %struct.conversation_element, ptr %55, i64 2
  call void @llvm.memcpy.p0.p0.i64(ptr align 8 %52, ptr align 8 %56, i64 32, i1 false)
  %57 = load ptr, ptr %3, align 8
  %58 = getelementptr inbounds nuw %struct.conversation, ptr %57, i32 0, i32 9
  %59 = load ptr, ptr %58, align 8
  %60 = getelementptr %struct.conversation_element, ptr %59, i64 2
  %61 = getelementptr inbounds nuw %struct.conversation_element, ptr %60, i32 0, i32 0
  store i32 2, ptr %61, align 8
  %62 = load i32, ptr %4, align 4
  %63 = load ptr, ptr %3, align 8
  %64 = getelementptr inbounds nuw %struct.conversation, ptr %63, i32 0, i32 9
  %65 = load ptr, ptr %64, align 8
  %66 = getelementptr %struct.conversation_element, ptr %65, i64 2
  %67 = getelementptr inbounds nuw %struct.conversation_element, ptr %66, i32 0, i32 1
  store i32 %62, ptr %67, align 8
  %68 = load ptr, ptr @conversation_hashtable_no_addr2, align 8
  %69 = load ptr, ptr %3, align 8
  call void @conversation_insert_into_hashtable(ptr noundef %68, ptr noundef %69)
  br label %92

70:                                               ; preds = %38
  %71 = load ptr, ptr %3, align 8
  %72 = getelementptr inbounds nuw %struct.conversation, ptr %71, i32 0, i32 9
  %73 = load ptr, ptr %72, align 8
  %74 = getelementptr %struct.conversation_element, ptr %73, i64 4
  %75 = load ptr, ptr %3, align 8
  %76 = getelementptr inbounds nuw %struct.conversation, ptr %75, i32 0, i32 9
  %77 = load ptr, ptr %76, align 8
  %78 = getelementptr %struct.conversation_element, ptr %77, i64 3
  call void @llvm.memcpy.p0.p0.i64(ptr align 8 %74, ptr align 8 %78, i64 32, i1 false)
  %79 = load ptr, ptr %3, align 8
  %80 = getelementptr inbounds nuw %struct.conversation, ptr %79, i32 0, i32 9
  %81 = load ptr, ptr %80, align 8
  %82 = getelementptr %struct.conversation_element, ptr %81, i64 3
  %83 = getelementptr inbounds nuw %struct.conversation_element, ptr %82, i32 0, i32 0
  store i32 2, ptr %83, align 8
  %84 = load i32, ptr %4, align 4
  %85 = load ptr, ptr %3, align 8
  %86 = getelementptr inbounds nuw %struct.conversation, ptr %85, i32 0, i32 9
  %87 = load ptr, ptr %86, align 8
  %88 = getelementptr %struct.conversation_element, ptr %87, i64 3
  %89 = getelementptr inbounds nuw %struct.conversation_element, ptr %88, i32 0, i32 1
  store i32 %84, ptr %89, align 8
  %90 = load ptr, ptr @conversation_hashtable_exact_addr_port, align 8
  %91 = load ptr, ptr %3, align 8
  call void @conversation_insert_into_hashtable(ptr noundef %90, ptr noundef %91)
  br label %92

92:                                               ; preds = %25, %70, %48
  ret void
}