; Function Attrs: null_pointer_is_valid sspstrong uwtable
define void @conversation_set_port2(ptr noundef %0, i32 noundef %1) local_unnamed_addr #0 {
  %3 = getelementptr inbounds nuw i8, ptr %0, i64 56
  %4 = load i32, ptr %3, align 8
  %5 = and i32 %4, 8
  %.not = icmp eq i32 %5, 0
  br i1 %.not, label %7, label %6

6:                                                ; preds = %2
  tail call void (ptr, ...) @proto_report_dissector_bug(ptr noundef nonnull @.str.3, ptr noundef nonnull @.str.1, i32 noundef 1323, ptr noundef nonnull @.str.6, ptr noundef nonnull @.str.7) #16
  unreachable

7:                                                ; preds = %2
  %8 = and i32 %4, 6
  %or.cond = icmp eq i32 %8, 2
  br i1 %or.cond, label %9, label %93

9:                                                ; preds = %7
  %10 = and i32 %4, 1
  %.not21 = icmp eq i32 %10, 0
  %11 = getelementptr inbounds nuw i8, ptr %0, i64 64
  %12 = load ptr, ptr %11, align 8
  br i1 %.not21, label %47, label %13

13:                                               ; preds = %9
  %14 = load ptr, ptr @conversation_hashtable_no_addr2_or_port2, align 8
  %15 = tail call ptr @wmem_map_lookup(ptr noundef %14, ptr noundef %12)
  %16 = icmp eq ptr %0, %15
  br i1 %16, label %17, label %34

17:                                               ; preds = %13
  %18 = load ptr, ptr %0, align 8
  %19 = icmp eq ptr %18, null
  br i1 %19, label %20, label %23

20:                                               ; preds = %17
  %21 = load ptr, ptr %11, align 8
  %22 = tail call zeroext i1 @wmem_map_steal(ptr noundef %14, ptr noundef %21)
  br label %conversation_remove_from_hashtable.exit

23:                                               ; preds = %17
  %24 = getelementptr inbounds nuw i8, ptr %0, i64 8
  %25 = load ptr, ptr %24, align 8
  %26 = getelementptr inbounds nuw i8, ptr %18, i64 8
  store ptr %25, ptr %26, align 8
  %27 = getelementptr inbounds nuw i8, ptr %0, i64 16
  %28 = load ptr, ptr %27, align 8
  %29 = icmp eq ptr %28, %0
  %spec.select.i = select i1 %29, ptr null, ptr %28
  %30 = getelementptr inbounds nuw i8, ptr %18, i64 16
  store ptr %spec.select.i, ptr %30, align 8
  %31 = getelementptr inbounds nuw i8, ptr %18, i64 64
  %32 = load ptr, ptr %31, align 8
  %33 = tail call ptr @wmem_map_insert(ptr noundef %14, ptr noundef %32, ptr noundef nonnull %18)
  br label %conversation_remove_from_hashtable.exit

34:                                               ; preds = %13
  %35 = load ptr, ptr %15, align 8
  %.not45.i = icmp eq ptr %35, %0
  br i1 %.not45.i, label %.critedge43.i, label %.lr.ph.i

36:                                               ; preds = %.lr.ph.i
  %.not.i = icmp eq ptr %37, %0
  br i1 %.not.i, label %.critedge43.i, label %.lr.ph.i, !llvm.loop !12

.lr.ph.i:                                         ; preds = %34, %36
  %.03646.i = phi ptr [ %37, %36 ], [ %35, %34 ]
  %37 = load ptr, ptr %.03646.i, align 8
  %.not42.i = icmp eq ptr %37, null
  br i1 %.not42.i, label %conversation_remove_from_hashtable.exit, label %36, !llvm.loop !12

.critedge43.i:                                    ; preds = %36, %34
  %.0.lcssa.i = phi ptr [ %15, %34 ], [ %.03646.i, %36 ]
  %38 = load ptr, ptr %0, align 8
  store ptr %38, ptr %.0.lcssa.i, align 8
  %39 = icmp eq ptr %38, null
  br i1 %39, label %40, label %42

40:                                               ; preds = %.critedge43.i
  %41 = getelementptr inbounds nuw i8, ptr %15, i64 8
  store ptr %.0.lcssa.i, ptr %41, align 8
  br label %42

42:                                               ; preds = %40, %.critedge43.i
  %43 = getelementptr inbounds nuw i8, ptr %15, i64 16
  %44 = load ptr, ptr %43, align 8
  %45 = icmp eq ptr %44, %0
  br i1 %45, label %46, label %conversation_remove_from_hashtable.exit

46:                                               ; preds = %42
  store ptr %.0.lcssa.i, ptr %43, align 8
  br label %conversation_remove_from_hashtable.exit

47:                                               ; preds = %9
  %48 = load ptr, ptr @conversation_hashtable_no_port2, align 8
  %49 = tail call ptr @wmem_map_lookup(ptr noundef %48, ptr noundef %12)
  %50 = icmp eq ptr %0, %49
  br i1 %50, label %51, label %68

51:                                               ; preds = %47
  %52 = load ptr, ptr %0, align 8
  %53 = icmp eq ptr %52, null
  br i1 %53, label %54, label %57

54:                                               ; preds = %51
  %55 = load ptr, ptr %11, align 8
  %56 = tail call zeroext i1 @wmem_map_steal(ptr noundef %48, ptr noundef %55)
  br label %conversation_remove_from_hashtable.exit

57:                                               ; preds = %51
  %58 = getelementptr inbounds nuw i8, ptr %0, i64 8
  %59 = load ptr, ptr %58, align 8
  %60 = getelementptr inbounds nuw i8, ptr %52, i64 8
  store ptr %59, ptr %60, align 8
  %61 = getelementptr inbounds nuw i8, ptr %0, i64 16
  %62 = load ptr, ptr %61, align 8
  %63 = icmp eq ptr %62, %0
  %spec.select.i30 = select i1 %63, ptr null, ptr %62
  %64 = getelementptr inbounds nuw i8, ptr %52, i64 16
  store ptr %spec.select.i30, ptr %64, align 8
  %65 = getelementptr inbounds nuw i8, ptr %52, i64 64
  %66 = load ptr, ptr %65, align 8
  %67 = tail call ptr @wmem_map_insert(ptr noundef %48, ptr noundef %66, ptr noundef nonnull %52)
  br label %conversation_remove_from_hashtable.exit

68:                                               ; preds = %47
  %69 = load ptr, ptr %49, align 8
  %.not45.i23 = icmp eq ptr %69, %0
  br i1 %.not45.i23, label %.critedge43.i28, label %.lr.ph.i24

70:                                               ; preds = %.lr.ph.i24
  %.not.i27 = icmp eq ptr %71, %0
  br i1 %.not.i27, label %.critedge43.i28, label %.lr.ph.i24, !llvm.loop !12

.lr.ph.i24:                                       ; preds = %68, %70
  %.03646.i25 = phi ptr [ %71, %70 ], [ %69, %68 ]
  %71 = load ptr, ptr %.03646.i25, align 8
  %.not42.i26 = icmp eq ptr %71, null
  br i1 %.not42.i26, label %conversation_remove_from_hashtable.exit, label %70, !llvm.loop !12

.critedge43.i28:                                  ; preds = %70, %68
  %.0.lcssa.i29 = phi ptr [ %49, %68 ], [ %.03646.i25, %70 ]
  %72 = load ptr, ptr %0, align 8
  store ptr %72, ptr %.0.lcssa.i29, align 8
  %73 = icmp eq ptr %72, null
  br i1 %73, label %74, label %76

74:                                               ; preds = %.critedge43.i28
  %75 = getelementptr inbounds nuw i8, ptr %49, i64 8
  store ptr %.0.lcssa.i29, ptr %75, align 8
  br label %76

76:                                               ; preds = %74, %.critedge43.i28
  %77 = getelementptr inbounds nuw i8, ptr %49, i64 16
  %78 = load ptr, ptr %77, align 8
  %79 = icmp eq ptr %78, %0
  br i1 %79, label %80, label %conversation_remove_from_hashtable.exit

80:                                               ; preds = %76
  store ptr %.0.lcssa.i29, ptr %77, align 8
  br label %conversation_remove_from_hashtable.exit

conversation_remove_from_hashtable.exit:          ; preds = %.lr.ph.i, %.lr.ph.i24, %80, %76, %57, %54, %46, %42, %23, %20
  %81 = load i32, ptr %3, align 8
  %82 = and i32 %81, -3
  store i32 %82, ptr %3, align 8
  %83 = and i32 %81, 1
  %.not22 = icmp eq i32 %83, 0
  %84 = getelementptr inbounds nuw i8, ptr %0, i64 64
  %85 = load ptr, ptr %84, align 8
  %. = select i1 %.not22, i64 128, i64 96
  %.48 = select i1 %.not22, i64 96, i64 64
  %.49 = select i1 %.not22, i64 104, i64 72
  %86 = getelementptr i8, ptr %85, i64 %.
  %87 = getelementptr i8, ptr %85, i64 %.48
  tail call void @llvm.memcpy.p0.p0.i64(ptr noundef align 8 dereferenceable(32) %86, ptr noundef align 8 dereferenceable(32) %87, i64 32, i1 false)
  %88 = load ptr, ptr %84, align 8
  %89 = getelementptr i8, ptr %88, i64 %.48
  store i32 2, ptr %89, align 8
  %90 = load ptr, ptr %84, align 8
  %91 = getelementptr i8, ptr %90, i64 %.49
  store i32 %1, ptr %91, align 8
  %conversation_hashtable_exact_addr_port.val = load ptr, ptr @conversation_hashtable_exact_addr_port, align 8
  %conversation_hashtable_no_addr2.val = load ptr, ptr @conversation_hashtable_no_addr2, align 8
  %92 = select i1 %.not22, ptr %conversation_hashtable_exact_addr_port.val, ptr %conversation_hashtable_no_addr2.val
  tail call fastcc void @conversation_insert_into_hashtable(ptr noundef %92, ptr noundef %0)
  br label %93

93:                                               ; preds = %conversation_remove_from_hashtable.exit, %7
  ret void
}